target datalayout = "e-m:e-p270:32:32-p271:32:32-p272:64:64-i64:64-i128:128-f80:128-n8:16:32:64-S128"
target triple = "x86_64-pc-linux-gnu"

%"class.gmx::StatePropagatorData" = type { i32, i32, %"class.gmx::PaddedVector", %"class.gmx::PaddedVector", %"class.gmx::PaddedVector", %"class.gmx::ForceBuffers", [3 x [3 x float]], [3 x [3 x float]], i32, i32, %"class.std::vector.39", %"class.gmx::PaddedVector", %"class.gmx::PaddedVector", %"class.gmx::PaddedVector", %"class.gmx::PaddedVector", %"class.std::unique_ptr", %"class.std::unique_ptr.43", i8, %"class.gmx::PaddedVector", i8, i64, ptr, ptr }
%"class.gmx::ForceBuffers" = type <{ %"class.gmx::PaddedVector", %"class.gmx::PaddedVector", %"class.gmx::ForceBuffersView", i8, [7 x i8] }>
%"class.gmx::ForceBuffersView" = type <{ %"class.gmx::ArrayRefWithPadding", %"class.gmx::ArrayRefWithPadding", i8, [7 x i8] }>
%"class.gmx::ArrayRefWithPadding" = type { ptr, ptr, ptr }
%"class.std::vector.39" = type { %"struct.std::_Vector_base.40" }
%"struct.std::_Vector_base.40" = type { %"struct.std::_Vector_base<int, std::allocator<int>>::_Vector_impl" }
%"struct.std::_Vector_base<int, std::allocator<int>>::_Vector_impl" = type { %"struct.std::_Vector_base<int, std::allocator<int>>::_Vector_impl_data" }
%"struct.std::_Vector_base<int, std::allocator<int>>::_Vector_impl_data" = type { ptr, ptr, ptr }
%"class.std::unique_ptr" = type { %"struct.std::__uniq_ptr_data" }
%"struct.std::__uniq_ptr_data" = type { %"class.std::__uniq_ptr_impl" }
%"class.std::__uniq_ptr_impl" = type { %"class.std::tuple" }
%"class.std::tuple" = type { %"struct.std::_Tuple_impl" }
%"struct.std::_Tuple_impl" = type { %"struct.std::_Head_base.42" }
%"struct.std::_Head_base.42" = type { ptr }
%"class.std::unique_ptr.43" = type { %"struct.std::__uniq_ptr_data.44" }
%"struct.std::__uniq_ptr_data.44" = type { %"class.std::__uniq_ptr_impl.45" }
%"class.std::__uniq_ptr_impl.45" = type { %"class.std::tuple.46" }
%"class.std::tuple.46" = type { %"struct.std::_Tuple_impl.47" }
%"struct.std::_Tuple_impl.47" = type { %"struct.std::_Head_base.50" }
%"struct.std::_Head_base.50" = type { ptr }
%"class.gmx::PaddedVector" = type { %"class.std::vector", %"class.__gnu_cxx::__normal_iterator" }
%"class.std::vector" = type { %"struct.std::_Vector_base" }
%"struct.std::_Vector_base" = type { %"struct.std::_Vector_base<gmx::BasicVector<float>, gmx::Allocator<gmx::BasicVector<float>, gmx::HostAllocationPolicy>>::_Vector_impl" }
%"struct.std::_Vector_base<gmx::BasicVector<float>, gmx::Allocator<gmx::BasicVector<float>, gmx::HostAllocationPolicy>>::_Vector_impl" = type { %"class.gmx::Allocator", %"struct.std::_Vector_base<gmx::BasicVector<float>, gmx::Allocator<gmx::BasicVector<float>, gmx::HostAllocationPolicy>>::_Vector_impl_data" }
%"class.gmx::Allocator" = type { %"class.gmx::HostAllocationPolicy" }
%"class.gmx::HostAllocationPolicy" = type { i32 }
%"struct.std::_Vector_base<gmx::BasicVector<float>, gmx::Allocator<gmx::BasicVector<float>, gmx::HostAllocationPolicy>>::_Vector_impl_data" = type { ptr, ptr, ptr }
%"class.__gnu_cxx::__normal_iterator" = type { ptr }
%"class.gmx::BasicVector" = type { [3 x float] }
%"class.__gnu_cxx::__normal_iterator.225" = type { ptr }

; Function Attrs: mustprogress nounwind uwtable
define linkonce_odr void @_ZN9__gnu_cxx17__normal_iteratorIPKN3gmx11BasicVectorIfEESt6vectorIS3_NS1_9AllocatorIS3_NS1_20HostAllocationPolicyEEEEEC2ERKS5_(ptr noundef nonnull align 8 dereferenceable(8) %0, ptr noundef nonnull align 8 dereferenceable(8) %1) unnamed_addr #1 comdat align 2 {
  %3 = alloca ptr, align 8
  %4 = alloca ptr, align 8
  store ptr %0, ptr %3, align 8
  store ptr %1, ptr %4, align 8
  %5 = load ptr, ptr %3, align 8
  %6 = getelementptr inbounds %"class.__gnu_cxx::__normal_iterator.225", ptr %5, i32 0, i32 0
  %7 = load ptr, ptr %4, align 8
  %8 = load ptr, ptr %7, align 8
  store ptr %8, ptr %6, align 8
  ret void
}

; Function Attrs: mustprogress nounwind uwtable
define linkonce_odr noundef nonnull align 8 dereferenceable(8) ptr @_ZNK9__gnu_cxx17__normal_iteratorIPN3gmx11BasicVectorIfEESt6vectorIS3_NS1_9AllocatorIS3_NS1_20HostAllocationPolicyEEEEE4baseEv(ptr noundef nonnull align 8 dereferenceable(8) %0) #1 comdat align 2 {
  %2 = alloca ptr, align 8
  store ptr %0, ptr %2, align 8
  %3 = load ptr, ptr %2, align 8
  %4 = getelementptr inbounds %"class.__gnu_cxx::__normal_iterator", ptr %3, i32 0, i32 0
  ret ptr %4
}

; Function Attrs: mustprogress nounwind uwtable
define linkonce_odr noundef nonnull align 8 dereferenceable(8) ptr @_ZNK9__gnu_cxx17__normal_iteratorIPKN3gmx11BasicVectorIfEESt6vectorIS3_NS1_9AllocatorIS3_NS1_20HostAllocationPolicyEEEEE4baseEv(ptr noundef nonnull align 8 dereferenceable(8) %0) #1 comdat align 2 {
  %2 = alloca ptr, align 8
  store ptr %0, ptr %2, align 8
  %3 = load ptr, ptr %2, align 8
  %4 = getelementptr inbounds %"class.__gnu_cxx::__normal_iterator.225", ptr %3, i32 0, i32 0
  ret ptr %4
}

; Function Attrs: mustprogress nounwind uwtable
define linkonce_odr ptr @_ZNKSt6vectorIN3gmx11BasicVectorIfEENS0_9AllocatorIS2_NS0_20HostAllocationPolicyEEEE5beginEv(ptr noundef nonnull align 8 dereferenceable(32) %0) #1 comdat align 2 {
  %2 = alloca %"class.__gnu_cxx::__normal_iterator.225", align 8
  %3 = alloca ptr, align 8
  store ptr %0, ptr %3, align 8
  %4 = load ptr, ptr %3, align 8
  %5 = getelementptr inbounds %"struct.std::_Vector_base", ptr %4, i32 0, i32 0
  %6 = getelementptr inbounds i8, ptr %5, i64 8
  %7 = getelementptr inbounds %"struct.std::_Vector_base<gmx::BasicVector<float>, gmx::Allocator<gmx::BasicVector<float>, gmx::HostAllocationPolicy>>::_Vector_impl_data", ptr %6, i32 0, i32 0
  call void @_ZN9__gnu_cxx17__normal_iteratorIPKN3gmx11BasicVectorIfEESt6vectorIS3_NS1_9AllocatorIS3_NS1_20HostAllocationPolicyEEEEEC2ERKS5_(ptr noundef nonnull align 8 dereferenceable(8) %2, ptr noundef nonnull align 8 dereferenceable(8) %7) #14
  %8 = getelementptr inbounds %"class.__gnu_cxx::__normal_iterator.225", ptr %2, i32 0, i32 0
  %9 = load ptr, ptr %8, align 8
  ret ptr %9
}

; Function Attrs: mustprogress nounwind uwtable
define linkonce_odr void @_ZN9__gnu_cxx17__normal_iteratorIPKN3gmx11BasicVectorIfEESt6vectorIS3_NS1_9AllocatorIS3_NS1_20HostAllocationPolicyEEEEEC2IPS3_vEERKNS0_IT_SA_EE(ptr noundef nonnull align 8 dereferenceable(8) %0, ptr noundef nonnull align 8 dereferenceable(8) %1) unnamed_addr #1 comdat align 2 {
  %3 = alloca ptr, align 8
  %4 = alloca ptr, align 8
  store ptr %0, ptr %3, align 8
  store ptr %1, ptr %4, align 8
  %5 = load ptr, ptr %3, align 8
  %6 = getelementptr inbounds %"class.__gnu_cxx::__normal_iterator.225", ptr %5, i32 0, i32 0
  %7 = load ptr, ptr %4, align 8
  %8 = call noundef nonnull align 8 dereferenceable(8) ptr @_ZNK9__gnu_cxx17__normal_iteratorIPN3gmx11BasicVectorIfEESt6vectorIS3_NS1_9AllocatorIS3_NS1_20HostAllocationPolicyEEEEE4baseEv(ptr noundef nonnull align 8 dereferenceable(8) %7) #14
  %9 = load ptr, ptr %8, align 8
  store ptr %9, ptr %6, align 8
  ret void
}

; Function Attrs: mustprogress nounwind uwtable
define linkonce_odr noundef ptr @_ZNKSt6vectorIN3gmx11BasicVectorIfEENS0_9AllocatorIS2_NS0_20HostAllocationPolicyEEEE11_M_data_ptrIS2_EEPT_S9_(ptr noundef nonnull align 8 dereferenceable(32) %0, ptr noundef %1) #1 comdat align 2 {
  %3 = alloca ptr, align 8
  %4 = alloca ptr, align 8
  store ptr %0, ptr %3, align 8
  store ptr %1, ptr %4, align 8
  %5 = load ptr, ptr %4, align 8
  ret ptr %5
}

; Function Attrs: mustprogress nounwind uwtable
define linkonce_odr noundef i64 @_ZNKSt6vectorIN3gmx11BasicVectorIfEENS0_9AllocatorIS2_NS0_20HostAllocationPolicyEEEE4sizeEv(ptr noundef nonnull align 8 dereferenceable(32) %0) #1 comdat align 2 {
  %2 = alloca ptr, align 8
  store ptr %0, ptr %2, align 8
  %3 = load ptr, ptr %2, align 8
  %4 = getelementptr inbounds %"struct.std::_Vector_base", ptr %3, i32 0, i32 0
  %5 = getelementptr inbounds i8, ptr %4, i64 8
  %6 = getelementptr inbounds %"struct.std::_Vector_base<gmx::BasicVector<float>, gmx::Allocator<gmx::BasicVector<float>, gmx::HostAllocationPolicy>>::_Vector_impl_data", ptr %5, i32 0, i32 1
  %7 = load ptr, ptr %6, align 8
  %8 = getelementptr inbounds %"struct.std::_Vector_base", ptr %3, i32 0, i32 0
  %9 = getelementptr inbounds i8, ptr %8, i64 8
  %10 = getelementptr inbounds %"struct.std::_Vector_base<gmx::BasicVector<float>, gmx::Allocator<gmx::BasicVector<float>, gmx::HostAllocationPolicy>>::_Vector_impl_data", ptr %9, i32 0, i32 0
  %11 = load ptr, ptr %10, align 8
  %12 = ptrtoint ptr %7 to i64
  %13 = ptrtoint ptr %11 to i64
  %14 = sub i64 %12, %13
  %15 = sdiv exact i64 %14, 12
  ret i64 %15
}

; Function Attrs: mustprogress nounwind uwtable
define linkonce_odr noundef i64 @_ZN9__gnu_cxxmiIPKN3gmx11BasicVectorIfEESt6vectorIS3_NS1_9AllocatorIS3_NS1_20HostAllocationPolicyEEEEEENS_17__normal_iteratorIT_T0_E15difference_typeERKSE_SH_(ptr noundef nonnull align 8 dereferenceable(8) %0, ptr noundef nonnull align 8 dereferenceable(8) %1) #1 comdat {
  %3 = alloca ptr, align 8
  %4 = alloca ptr, align 8
  store ptr %0, ptr %3, align 8
  store ptr %1, ptr %4, align 8
  %5 = load ptr, ptr %3, align 8
  %6 = call noundef nonnull align 8 dereferenceable(8) ptr @_ZNK9__gnu_cxx17__normal_iteratorIPKN3gmx11BasicVectorIfEESt6vectorIS3_NS1_9AllocatorIS3_NS1_20HostAllocationPolicyEEEEE4baseEv(ptr noundef nonnull align 8 dereferenceable(8) %5) #14
  %7 = load ptr, ptr %6, align 8
  %8 = load ptr, ptr %4, align 8
  %9 = call noundef nonnull align 8 dereferenceable(8) ptr @_ZNK9__gnu_cxx17__normal_iteratorIPKN3gmx11BasicVectorIfEESt6vectorIS3_NS1_9AllocatorIS3_NS1_20HostAllocationPolicyEEEEE4baseEv(ptr noundef nonnull align 8 dereferenceable(8) %8) #14
  %10 = load ptr, ptr %9, align 8
  %11 = ptrtoint ptr %7 to i64
  %12 = ptrtoint ptr %10 to i64
  %13 = sub i64 %11, %12
  %14 = sdiv exact i64 %13, 12
  ret i64 %14
}

; Function Attrs: mustprogress nounwind uwtable
define linkonce_odr ptr @_ZNK3gmx12PaddedVectorINS_11BasicVectorIfEENS_9AllocatorIS2_NS_20HostAllocationPolicyEEEE5beginEv(ptr noundef nonnull align 8 dereferenceable(40) %0) #1 comdat align 2 {
  %2 = alloca %"class.__gnu_cxx::__normal_iterator.225", align 8
  %3 = alloca ptr, align 8
  store ptr %0, ptr %3, align 8
  %4 = load ptr, ptr %3, align 8
  %5 = getelementptr inbounds %"class.gmx::PaddedVector", ptr %4, i32 0, i32 0
  %6 = call ptr @_ZNKSt6vectorIN3gmx11BasicVectorIfEENS0_9AllocatorIS2_NS0_20HostAllocationPolicyEEEE5beginEv(ptr noundef nonnull align 8 dereferenceable(32) %5) #14
  %7 = getelementptr inbounds %"class.__gnu_cxx::__normal_iterator.225", ptr %2, i32 0, i32 0
  store ptr %6, ptr %7, align 8
  %8 = getelementptr inbounds %"class.__gnu_cxx::__normal_iterator.225", ptr %2, i32 0, i32 0
  %9 = load ptr, ptr %8, align 8
  ret ptr %9
}

; Function Attrs: mustprogress nounwind uwtable
define linkonce_odr ptr @_ZNK3gmx12PaddedVectorINS_11BasicVectorIfEENS_9AllocatorIS2_NS_20HostAllocationPolicyEEEE3endEv(ptr noundef nonnull align 8 dereferenceable(40) %0) #1 comdat align 2 {
  %2 = alloca %"class.__gnu_cxx::__normal_iterator.225", align 8
  %3 = alloca ptr, align 8
  store ptr %0, ptr %3, align 8
  %4 = load ptr, ptr %3, align 8
  %5 = getelementptr inbounds %"class.gmx::PaddedVector", ptr %4, i32 0, i32 1
  call void @_ZN9__gnu_cxx17__normal_iteratorIPKN3gmx11BasicVectorIfEESt6vectorIS3_NS1_9AllocatorIS3_NS1_20HostAllocationPolicyEEEEEC2IPS3_vEERKNS0_IT_SA_EE(ptr noundef nonnull align 8 dereferenceable(8) %2, ptr noundef nonnull align 8 dereferenceable(8) %5) #14
  %6 = getelementptr inbounds %"class.__gnu_cxx::__normal_iterator.225", ptr %2, i32 0, i32 0
  %7 = load ptr, ptr %6, align 8
  ret ptr %7
}

; Function Attrs: mustprogress nounwind uwtable
define linkonce_odr noundef ptr @_ZNSt6vectorIN3gmx11BasicVectorIfEENS0_9AllocatorIS2_NS0_20HostAllocationPolicyEEEE4dataEv(ptr noundef nonnull align 8 dereferenceable(32) %0) #1 comdat align 2 {
  %2 = alloca ptr, align 8
  store ptr %0, ptr %2, align 8
  %3 = load ptr, ptr %2, align 8
  %4 = getelementptr inbounds %"struct.std::_Vector_base", ptr %3, i32 0, i32 0
  %5 = getelementptr inbounds i8, ptr %4, i64 8
  %6 = getelementptr inbounds %"struct.std::_Vector_base<gmx::BasicVector<float>, gmx::Allocator<gmx::BasicVector<float>, gmx::HostAllocationPolicy>>::_Vector_impl_data", ptr %5, i32 0, i32 0
  %7 = load ptr, ptr %6, align 8
  %8 = call noundef ptr @_ZNKSt6vectorIN3gmx11BasicVectorIfEENS0_9AllocatorIS2_NS0_20HostAllocationPolicyEEEE11_M_data_ptrIS2_EEPT_S9_(ptr noundef nonnull align 8 dereferenceable(32) %3, ptr noundef %7) #14
  ret ptr %8
}

; Function Attrs: mustprogress nounwind uwtable
define linkonce_odr void @_ZN3gmx19ArrayRefWithPaddingINS_11BasicVectorIfEEEC2EPS2_S4_S4_(ptr noundef nonnull align 8 dereferenceable(24) %0, ptr noundef %1, ptr noundef %2, ptr noundef %3) unnamed_addr #1 comdat align 2 {
  %5 = alloca ptr, align 8
  %6 = alloca ptr, align 8
  %7 = alloca ptr, align 8
  %8 = alloca ptr, align 8
  store ptr %0, ptr %5, align 8
  store ptr %1, ptr %6, align 8
  store ptr %2, ptr %7, align 8
  store ptr %3, ptr %8, align 8
  %9 = load ptr, ptr %5, align 8
  %10 = getelementptr inbounds %"class.gmx::ArrayRefWithPadding", ptr %9, i32 0, i32 0
  %11 = load ptr, ptr %6, align 8
  store ptr %11, ptr %10, align 8
  %12 = getelementptr inbounds %"class.gmx::ArrayRefWithPadding", ptr %9, i32 0, i32 1
  %13 = load ptr, ptr %7, align 8
  store ptr %13, ptr %12, align 8
  %14 = getelementptr inbounds %"class.gmx::ArrayRefWithPadding", ptr %9, i32 0, i32 2
  %15 = load ptr, ptr %8, align 8
  store ptr %15, ptr %14, align 8
  ret void
}

; Function Attrs: mustprogress nounwind uwtable
define linkonce_odr noundef i64 @_ZNK3gmx12PaddedVectorINS_11BasicVectorIfEENS_9AllocatorIS2_NS_20HostAllocationPolicyEEEE10paddedSizeEv(ptr noundef nonnull align 8 dereferenceable(40) %0) #1 comdat align 2 {
  %2 = alloca ptr, align 8
  store ptr %0, ptr %2, align 8
  %3 = load ptr, ptr %2, align 8
  %4 = getelementptr inbounds %"class.gmx::PaddedVector", ptr %3, i32 0, i32 0
  %5 = call noundef i64 @_ZNKSt6vectorIN3gmx11BasicVectorIfEENS0_9AllocatorIS2_NS0_20HostAllocationPolicyEEEE4sizeEv(ptr noundef nonnull align 8 dereferenceable(32) %4) #14
  ret i64 %5
}

; Function Attrs: mustprogress uwtable
define linkonce_odr noundef i64 @_ZNK3gmx12PaddedVectorINS_11BasicVectorIfEENS_9AllocatorIS2_NS_20HostAllocationPolicyEEEE4sizeEv(ptr noundef nonnull align 8 dereferenceable(40) %0) #0 comdat align 2 {
  %2 = alloca ptr, align 8
  %3 = alloca %"class.__gnu_cxx::__normal_iterator.225", align 8
  %4 = alloca %"class.__gnu_cxx::__normal_iterator.225", align 8
  store ptr %0, ptr %2, align 8
  %5 = load ptr, ptr %2, align 8
  %6 = call ptr @_ZNK3gmx12PaddedVectorINS_11BasicVectorIfEENS_9AllocatorIS2_NS_20HostAllocationPolicyEEEE3endEv(ptr noundef nonnull align 8 dereferenceable(40) %5)
  %7 = getelementptr inbounds %"class.__gnu_cxx::__normal_iterator.225", ptr %3, i32 0, i32 0
  store ptr %6, ptr %7, align 8
  %8 = call ptr @_ZNK3gmx12PaddedVectorINS_11BasicVectorIfEENS_9AllocatorIS2_NS_20HostAllocationPolicyEEEE5beginEv(ptr noundef nonnull align 8 dereferenceable(40) %5)
  %9 = getelementptr inbounds %"class.__gnu_cxx::__normal_iterator.225", ptr %4, i32 0, i32 0
  store ptr %8, ptr %9, align 8
  %10 = call noundef i64 @_ZN9__gnu_cxxmiIPKN3gmx11BasicVectorIfEESt6vectorIS3_NS1_9AllocatorIS3_NS1_20HostAllocationPolicyEEEEEENS_17__normal_iteratorIT_T0_E15difference_typeERKSE_SH_(ptr noundef nonnull align 8 dereferenceable(8) %3, ptr noundef nonnull align 8 dereferenceable(8) %4) #14
  ret i64 %10
}

; Function Attrs: mustprogress nounwind uwtable
define linkonce_odr noundef ptr @_ZN3gmx12PaddedVectorINS_11BasicVectorIfEENS_9AllocatorIS2_NS_20HostAllocationPolicyEEEE4dataEv(ptr noundef nonnull align 8 dereferenceable(40) %0) #1 comdat align 2 {
  %2 = alloca ptr, align 8
  store ptr %0, ptr %2, align 8
  %3 = load ptr, ptr %2, align 8
  %4 = getelementptr inbounds %"class.gmx::PaddedVector", ptr %3, i32 0, i32 0
  %5 = call noundef ptr @_ZNSt6vectorIN3gmx11BasicVectorIfEENS0_9AllocatorIS2_NS0_20HostAllocationPolicyEEEE4dataEv(ptr noundef nonnull align 8 dereferenceable(32) %4) #14
  ret ptr %5
}

; Function Attrs: mustprogress uwtable
define linkonce_odr void @_ZN3gmx12PaddedVectorINS_11BasicVectorIfEENS_9AllocatorIS2_NS_20HostAllocationPolicyEEEE19arrayRefWithPaddingEv(ptr dead_on_unwind noalias writable sret(%"class.gmx::ArrayRefWithPadding") align 8 %0, ptr noundef nonnull align 8 dereferenceable(40) %1) #0 comdat align 2 {
  %3 = alloca ptr, align 8
  %4 = alloca ptr, align 8
  store ptr %0, ptr %3, align 8
  store ptr %1, ptr %4, align 8
  %5 = load ptr, ptr %4, align 8
  %6 = call noundef ptr @_ZN3gmx12PaddedVectorINS_11BasicVectorIfEENS_9AllocatorIS2_NS_20HostAllocationPolicyEEEE4dataEv(ptr noundef nonnull align 8 dereferenceable(40) %5) #14
  %7 = call noundef ptr @_ZN3gmx12PaddedVectorINS_11BasicVectorIfEENS_9AllocatorIS2_NS_20HostAllocationPolicyEEEE4dataEv(ptr noundef nonnull align 8 dereferenceable(40) %5) #14
  %8 = call noundef i64 @_ZNK3gmx12PaddedVectorINS_11BasicVectorIfEENS_9AllocatorIS2_NS_20HostAllocationPolicyEEEE4sizeEv(ptr noundef nonnull align 8 dereferenceable(40) %5)
  %9 = getelementptr inbounds %"class.gmx::BasicVector", ptr %7, i64 %8
  %10 = call noundef ptr @_ZN3gmx12PaddedVectorINS_11BasicVectorIfEENS_9AllocatorIS2_NS_20HostAllocationPolicyEEEE4dataEv(ptr noundef nonnull align 8 dereferenceable(40) %5) #14
  %11 = call noundef i64 @_ZNK3gmx12PaddedVectorINS_11BasicVectorIfEENS_9AllocatorIS2_NS_20HostAllocationPolicyEEEE10paddedSizeEv(ptr noundef nonnull align 8 dereferenceable(40) %5)
  %12 = getelementptr inbounds %"class.gmx::BasicVector", ptr %10, i64 %11
  call void @_ZN3gmx19ArrayRefWithPaddingINS_11BasicVectorIfEEEC2EPS2_S4_S4_(ptr noundef nonnull align 8 dereferenceable(24) %0, ptr noundef %6, ptr noundef %9, ptr noundef %12)
  ret void
}

; Function Attrs: mustprogress uwtable
define void @_ZN3gmx19StatePropagatorData14velocitiesViewEv(ptr dead_on_unwind noalias writable sret(%"class.gmx::ArrayRefWithPadding") align 8 %0, ptr noundef nonnull align 8 dereferenceable(632) %1) #0 align 2 {
  %3 = alloca ptr, align 8
  %4 = alloca ptr, align 8
  store ptr %0, ptr %3, align 8
  store ptr %1, ptr %4, align 8
  %5 = load ptr, ptr %4, align 8
  %6 = getelementptr inbounds %"class.gmx::StatePropagatorData", ptr %5, i32 0, i32 4
  call void @_ZN3gmx12PaddedVectorINS_11BasicVectorIfEENS_9AllocatorIS2_NS_20HostAllocationPolicyEEEE19arrayRefWithPaddingEv(ptr dead_on_unwind writable sret(%"class.gmx::ArrayRefWithPadding") align 8 %0, ptr noundef nonnull align 8 dereferenceable(40) %6)
  ret void
}